; Function Attrs: mustprogress uwtable
define dso_local noundef zeroext i1 @_ZN11flatbuffers6VerifyERKN10reflection6SchemaERKNS0_6ObjectEPKhmjj(ptr noundef nonnull align 1 captures(none) dereferenceable(1) %0, ptr noundef nonnull align 1 dereferenceable(1) %1, ptr noundef %2, i64 noundef %3, i32 noundef %4, i32 noundef %5) local_unnamed_addr #2 {
  %7 = alloca %"class.flatbuffers::VerifierTemplate", align 8
  call void @llvm.lifetime.start.p0(i64 72, ptr nonnull %7) #21
  store ptr %2, ptr %7, align 8, !tbaa !137
  %8 = getelementptr inbounds nuw i8, ptr %7, i64 8
  store i64 %3, ptr %8, align 8, !tbaa !140
  %9 = getelementptr inbounds nuw i8, ptr %7, i64 16
  store i32 %4, ptr %9, align 8, !tbaa !9
  %.sroa.43.0..sroa_idx.i = getelementptr inbounds nuw i8, ptr %7, i64 20
  store i32 %5, ptr %.sroa.43.0..sroa_idx.i, align 4, !tbaa !9
  %.sroa.5.0..sroa_idx.i = getelementptr inbounds nuw i8, ptr %7, i64 24
  store i8 1, ptr %.sroa.5.0..sroa_idx.i, align 8, !tbaa !141
  %.sroa.64.0..sroa_idx.i = getelementptr inbounds nuw i8, ptr %7, i64 25
  store i8 1, ptr %.sroa.64.0..sroa_idx.i, align 1, !tbaa !141
  %.sroa.75.0..sroa_idx.i = getelementptr inbounds nuw i8, ptr %7, i64 32
  store i64 2147483647, ptr %.sroa.75.0..sroa_idx.i, align 8, !tbaa !11
  %.sroa.8.0..sroa_idx.i = getelementptr inbounds nuw i8, ptr %7, i64 40
  store i8 0, ptr %.sroa.8.0..sroa_idx.i, align 8, !tbaa !141
  %10 = getelementptr inbounds nuw i8, ptr %7, i64 48
  call void @llvm.memset.p0.i64(ptr noundef nonnull align 8 dereferenceable(24) %10, i8 0, i64 24, i1 false)
  %.not.i.i.i = icmp eq ptr %2, null
  br i1 %.not.i.i.i, label %_ZN11flatbuffers10GetAnyRootEPKh.exit, label %11

11:                                               ; preds = %6
  %12 = load i32, ptr %2, align 4, !tbaa !9
  %13 = zext i32 %12 to i64
  %14 = getelementptr inbounds nuw i8, ptr %2, i64 %13
  br label %_ZN11flatbuffers10GetAnyRootEPKh.exit

_ZN11flatbuffers10GetAnyRootEPKh.exit:            ; preds = %6, %11
  %.0.i.i.i = phi ptr [ %14, %11 ], [ null, %6 ]
  %15 = call fastcc noundef zeroext i1 @_ZN11flatbuffers12_GLOBAL__N_112VerifyObjectERNS_16VerifierTemplateILb0EEERKN10reflection6SchemaERKNS4_6ObjectEPKNS_5TableEb(ptr noundef nonnull align 8 dereferenceable(72) %7, ptr noundef nonnull align 1 dereferenceable(1) %0, ptr noundef nonnull align 1 dereferenceable(1) %1, ptr noundef %.0.i.i.i, i1 noundef zeroext true)
  call void @llvm.lifetime.end.p0(i64 72, ptr nonnull %7) #21
  ret i1 %15
}